target datalayout = "e-m:e-p270:32:32-p271:32:32-p272:64:64-i64:64-i128:128-f80:128-n8:16:32:64-S128"
target triple = "x86_64-pc-linux-gnu"

%struct.ForEachState = type { ptr, i32 }
%union.ListCell = type { ptr }
%struct.Query = type { i32, i32, i32, i64, i8, ptr, i32, i8, i8, i8, i8, i8, i8, i8, i8, i8, i8, i8, ptr, ptr, ptr, ptr, ptr, i32, ptr, ptr, i32, ptr, ptr, ptr, ptr, ptr, i8, ptr, ptr, ptr, ptr, ptr, ptr, ptr, i32, ptr, ptr, ptr, ptr, i32, i32 }
%struct.List = type { i32, i32, i32, ptr, [0 x %union.ListCell] }
%struct.Expr = type { i32 }
%struct.Node = type { i32 }
%struct.Const = type { %struct.Expr, i32, i32, i32, i32, i64, i8, i8, i32 }
%struct.RangeTblEntry = type { i32, ptr, ptr, i32, i32, i8, i8, i32, i32, ptr, ptr, i8, i32, i32, ptr, ptr, ptr, ptr, ptr, i8, ptr, ptr, ptr, i32, i8, ptr, ptr, ptr, ptr, double, ptr, i8, i8, ptr }

; Function Attrs: inlinehint nounwind uwtable
define internal i64 @DatumGetInt64(i64 noundef %0) #5 {
  %2 = alloca i64, align 8
  store i64 %0, ptr %2, align 8
  %3 = load i64, ptr %2, align 8
  ret i64 %3
}

; Function Attrs: nounwind uwtable
define internal zeroext i1 @simplify_EXISTS_query(ptr noundef %0, ptr noundef %1) #0 {
  %3 = alloca i1, align 1
  %4 = alloca ptr, align 8
  %5 = alloca ptr, align 8
  %6 = alloca ptr, align 8
  %7 = alloca i32, align 4
  %8 = alloca ptr, align 8
  %9 = alloca ptr, align 8
  %10 = alloca %struct.ForEachState, align 8
  %11 = alloca ptr, align 8
  store ptr %0, ptr %4, align 8
  store ptr %1, ptr %5, align 8
  call void @llvm.lifetime.start.p0(i64 8, ptr %6) #8
  %12 = load ptr, ptr %5, align 8
  %13 = getelementptr inbounds nuw %struct.Query, ptr %12, i32 0, i32 1
  %14 = load i32, ptr %13, align 4
  %15 = icmp ne i32 %14, 1
  br i1 %15, label %61, label %16

16:                                               ; preds = %2
  %17 = load ptr, ptr %5, align 8
  %18 = getelementptr inbounds nuw %struct.Query, ptr %17, i32 0, i32 42
  %19 = load ptr, ptr %18, align 8
  %20 = icmp ne ptr %19, null
  br i1 %20, label %61, label %21

21:                                               ; preds = %16
  %22 = load ptr, ptr %5, align 8
  %23 = getelementptr inbounds nuw %struct.Query, ptr %22, i32 0, i32 7
  %24 = load i8, ptr %23, align 4, !range !4, !noundef !5
  %25 = trunc i8 %24 to i1
  br i1 %25, label %61, label %26

26:                                               ; preds = %21
  %27 = load ptr, ptr %5, align 8
  %28 = getelementptr inbounds nuw %struct.Query, ptr %27, i32 0, i32 33
  %29 = load ptr, ptr %28, align 8
  %30 = icmp ne ptr %29, null
  br i1 %30, label %61, label %31

31:                                               ; preds = %26
  %32 = load ptr, ptr %5, align 8
  %33 = getelementptr inbounds nuw %struct.Query, ptr %32, i32 0, i32 8
  %34 = load i8, ptr %33, align 1, !range !4, !noundef !5
  %35 = trunc i8 %34 to i1
  br i1 %35, label %61, label %36

36:                                               ; preds = %31
  %37 = load ptr, ptr %5, align 8
  %38 = getelementptr inbounds nuw %struct.Query, ptr %37, i32 0, i32 9
  %39 = load i8, ptr %38, align 2, !range !4, !noundef !5
  %40 = trunc i8 %39 to i1
  br i1 %40, label %61, label %41

41:                                               ; preds = %36
  %42 = load ptr, ptr %5, align 8
  %43 = getelementptr inbounds nuw %struct.Query, ptr %42, i32 0, i32 13
  %44 = load i8, ptr %43, align 2, !range !4, !noundef !5
  %45 = trunc i8 %44 to i1
  br i1 %45, label %61, label %46

46:                                               ; preds = %41
  %47 = load ptr, ptr %5, align 8
  %48 = getelementptr inbounds nuw %struct.Query, ptr %47, i32 0, i32 34
  %49 = load ptr, ptr %48, align 8
  %50 = icmp ne ptr %49, null
  br i1 %50, label %61, label %51

51:                                               ; preds = %46
  %52 = load ptr, ptr %5, align 8
  %53 = getelementptr inbounds nuw %struct.Query, ptr %52, i32 0, i32 38
  %54 = load ptr, ptr %53, align 8
  %55 = icmp ne ptr %54, null
  br i1 %55, label %61, label %56

56:                                               ; preds = %51
  %57 = load ptr, ptr %5, align 8
  %58 = getelementptr inbounds nuw %struct.Query, ptr %57, i32 0, i32 41
  %59 = load ptr, ptr %58, align 8
  %60 = icmp ne ptr %59, null
  br i1 %60, label %61, label %62

61:                                               ; preds = %56, %51, %46, %41, %36, %31, %26, %21, %16, %2
  store i1 false, ptr %3, align 1
  store i32 1, ptr %7, align 4
  br label %172

62:                                               ; preds = %56
  %63 = load ptr, ptr %5, align 8
  %64 = getelementptr inbounds nuw %struct.Query, ptr %63, i32 0, i32 39
  %65 = load ptr, ptr %64, align 8
  %66 = icmp ne ptr %65, null
  br i1 %66, label %67, label %100

67:                                               ; preds = %62
  call void @llvm.lifetime.start.p0(i64 8, ptr %8) #8
  %68 = load ptr, ptr %4, align 8
  %69 = load ptr, ptr %5, align 8
  %70 = getelementptr inbounds nuw %struct.Query, ptr %69, i32 0, i32 39
  %71 = load ptr, ptr %70, align 8
  %72 = call ptr @eval_const_expressions(ptr noundef %68, ptr noundef %71)
  store ptr %72, ptr %8, align 8
  call void @llvm.lifetime.start.p0(i64 8, ptr %9) #8
  %73 = load ptr, ptr %8, align 8
  %74 = load ptr, ptr %5, align 8
  %75 = getelementptr inbounds nuw %struct.Query, ptr %74, i32 0, i32 39
  store ptr %73, ptr %75, align 8
  %76 = load ptr, ptr %8, align 8
  %77 = getelementptr inbounds nuw %struct.Node, ptr %76, i32 0, i32 0
  %78 = load i32, ptr %77, align 4
  %79 = icmp eq i32 %78, 7
  br i1 %79, label %81, label %80

80:                                               ; preds = %67
  store i1 false, ptr %3, align 1
  store i32 1, ptr %7, align 4
  br label %97

81:                                               ; preds = %67
  %82 = load ptr, ptr %8, align 8
  store ptr %82, ptr %9, align 8
  %83 = load ptr, ptr %9, align 8
  %84 = getelementptr inbounds nuw %struct.Const, ptr %83, i32 0, i32 6
  %85 = load i8, ptr %84, align 8, !range !4, !noundef !5
  %86 = trunc i8 %85 to i1
  br i1 %86, label %94, label %87

87:                                               ; preds = %81
  %88 = load ptr, ptr %9, align 8
  %89 = getelementptr inbounds nuw %struct.Const, ptr %88, i32 0, i32 5
  %90 = load i64, ptr %89, align 8
  %91 = call i64 @DatumGetInt64(i64 noundef %90)
  %92 = icmp sle i64 %91, 0
  br i1 %92, label %93, label %94

93:                                               ; preds = %87
  store i1 false, ptr %3, align 1
  store i32 1, ptr %7, align 4
  br label %97

94:                                               ; preds = %87, %81
  %95 = load ptr, ptr %5, align 8
  %96 = getelementptr inbounds nuw %struct.Query, ptr %95, i32 0, i32 39
  store ptr null, ptr %96, align 8
  store i32 0, ptr %7, align 4
  br label %97

97:                                               ; preds = %94, %93, %80
  call void @llvm.lifetime.end.p0(i64 8, ptr %9) #8
  call void @llvm.lifetime.end.p0(i64 8, ptr %8) #8
  %98 = load i32, ptr %7, align 4
  switch i32 %98, label %172 [
    i32 0, label %99
  ]

99:                                               ; preds = %97
  br label %100

100:                                              ; preds = %99, %62
  %101 = load ptr, ptr %5, align 8
  %102 = getelementptr inbounds nuw %struct.Query, ptr %101, i32 0, i32 25
  store ptr null, ptr %102, align 8
  %103 = load ptr, ptr %5, align 8
  %104 = getelementptr inbounds nuw %struct.Query, ptr %103, i32 0, i32 31
  store ptr null, ptr %104, align 8
  %105 = load ptr, ptr %5, align 8
  %106 = getelementptr inbounds nuw %struct.Query, ptr %105, i32 0, i32 35
  store ptr null, ptr %106, align 8
  %107 = load ptr, ptr %5, align 8
  %108 = getelementptr inbounds nuw %struct.Query, ptr %107, i32 0, i32 36
  store ptr null, ptr %108, align 8
  %109 = load ptr, ptr %5, align 8
  %110 = getelementptr inbounds nuw %struct.Query, ptr %109, i32 0, i32 37
  store ptr null, ptr %110, align 8
  %111 = load ptr, ptr %5, align 8
  %112 = getelementptr inbounds nuw %struct.Query, ptr %111, i32 0, i32 11
  store i8 0, ptr %112, align 8
  call void @llvm.lifetime.start.p0(i64 16, ptr %10) #8
  %113 = getelementptr inbounds nuw %struct.ForEachState, ptr %10, i32 0, i32 0
  %114 = load ptr, ptr %5, align 8
  %115 = getelementptr inbounds nuw %struct.Query, ptr %114, i32 0, i32 19
  %116 = load ptr, ptr %115, align 8
  store ptr %116, ptr %113, align 8
  %117 = getelementptr inbounds nuw %struct.ForEachState, ptr %10, i32 0, i32 1
  store i32 0, ptr %117, align 8
  %118 = getelementptr i8, ptr %10, i64 12
  call void @llvm.memset.p0.i64(ptr align 4 %118, i8 0, i64 4, i1 false)
  br label %119

119:                                              ; preds = %166, %100
  %120 = getelementptr inbounds nuw %struct.ForEachState, ptr %10, i32 0, i32 0
  %121 = load ptr, ptr %120, align 8
  %122 = icmp ne ptr %121, null
  br i1 %122, label %123, label %140

123:                                              ; preds = %119
  %124 = getelementptr inbounds nuw %struct.ForEachState, ptr %10, i32 0, i32 1
  %125 = load i32, ptr %124, align 8
  %126 = getelementptr inbounds nuw %struct.ForEachState, ptr %10, i32 0, i32 0
  %127 = load ptr, ptr %126, align 8
  %128 = getelementptr inbounds nuw %struct.List, ptr %127, i32 0, i32 1
  %129 = load i32, ptr %128, align 4
  %130 = icmp slt i32 %125, %129
  br i1 %130, label %131, label %140

131:                                              ; preds = %123
  %132 = getelementptr inbounds nuw %struct.ForEachState, ptr %10, i32 0, i32 0
  %133 = load ptr, ptr %132, align 8
  %134 = getelementptr inbounds nuw %struct.List, ptr %133, i32 0, i32 3
  %135 = load ptr, ptr %134, align 8
  %136 = getelementptr inbounds nuw %struct.ForEachState, ptr %10, i32 0, i32 1
  %137 = load i32, ptr %136, align 8
  %138 = sext i32 %137 to i64
  %139 = getelementptr inbounds %union.ListCell, ptr %135, i64 %138
  store ptr %139, ptr %6, align 8
  br label %141

140:                                              ; preds = %123, %119
  store ptr null, ptr %6, align 8
  br label %141

141:                                              ; preds = %140, %131
  %142 = phi i32 [ 1, %131 ], [ 0, %140 ]
  %143 = icmp ne i32 %142, 0
  br i1 %143, label %145, label %144

144:                                              ; preds = %141
  store i32 2, ptr %7, align 4
  br label %170

145:                                              ; preds = %141
  call void @llvm.lifetime.start.p0(i64 8, ptr %11) #8
  %146 = load ptr, ptr %6, align 8
  %147 = load ptr, ptr %146, align 8
  store ptr %147, ptr %11, align 8
  %148 = load ptr, ptr %11, align 8
  %149 = getelementptr inbounds nuw %struct.RangeTblEntry, ptr %148, i32 0, i32 3
  %150 = load i32, ptr %149, align 8
  %151 = icmp eq i32 %150, 9
  br i1 %151, label %152, label %162

152:                                              ; preds = %145
  %153 = load ptr, ptr %5, align 8
  %154 = getelementptr inbounds nuw %struct.Query, ptr %153, i32 0, i32 19
  %155 = load ptr, ptr %154, align 8
  %156 = load ptr, ptr %6, align 8
  %157 = call ptr @list_delete_cell(ptr noundef %155, ptr noundef %156)
  %158 = load ptr, ptr %5, align 8
  %159 = getelementptr inbounds nuw %struct.Query, ptr %158, i32 0, i32 19
  store ptr %157, ptr %159, align 8
  %160 = load ptr, ptr %5, align 8
  %161 = getelementptr inbounds nuw %struct.Query, ptr %160, i32 0, i32 16
  store i8 0, ptr %161, align 1
  store i32 2, ptr %7, align 4
  br label %163

162:                                              ; preds = %145
  store i32 0, ptr %7, align 4
  br label %163

163:                                              ; preds = %162, %152
  call void @llvm.lifetime.end.p0(i64 8, ptr %11) #8
  %164 = load i32, ptr %7, align 4
  switch i32 %164, label %170 [
    i32 0, label %165
  ]

165:                                              ; preds = %163
  br label %166

166:                                              ; preds = %165
  %167 = getelementptr inbounds nuw %struct.ForEachState, ptr %10, i32 0, i32 1
  %168 = load i32, ptr %167, align 8
  %169 = add i32 %168, 1
  store i32 %169, ptr %167, align 8
  br label %119, !llvm.loop !10

170:                                              ; preds = %163, %144
  call void @llvm.lifetime.end.p0(i64 16, ptr %10) #8
  br label %171

171:                                              ; preds = %170
  store i1 true, ptr %3, align 1
  store i32 1, ptr %7, align 4
  br label %172

172:                                              ; preds = %171, %97, %61
  call void @llvm.lifetime.end.p0(i64 8, ptr %6) #8
  %173 = load i1, ptr %3, align 1
  ret i1 %173
}