; Function Attrs: nounwind uwtable
define internal fastcc noundef zeroext i1 @simplify_EXISTS_query(ptr noundef %0, ptr noundef captures(none) %1) unnamed_addr #0 {
  %3 = getelementptr inbounds nuw i8, ptr %1, i64 4
  %4 = load i32, ptr %3, align 4
  %.not = icmp eq i32 %4, 1
  br i1 %.not, label %5, label %.thread

5:                                                ; preds = %2
  %6 = getelementptr inbounds nuw i8, ptr %1, i64 248
  %7 = load ptr, ptr %6, align 8
  %.not45 = icmp eq ptr %7, null
  br i1 %.not45, label %8, label %.thread

8:                                                ; preds = %5
  %9 = getelementptr inbounds nuw i8, ptr %1, i64 44
  %10 = load i8, ptr %9, align 4, !range !4, !noundef !5
  %11 = trunc nuw i8 %10 to i1
  br i1 %11, label %.thread, label %12

12:                                               ; preds = %8
  %13 = getelementptr inbounds nuw i8, ptr %1, i64 176
  %14 = load ptr, ptr %13, align 8
  %.not46 = icmp eq ptr %14, null
  br i1 %.not46, label %15, label %.thread

15:                                               ; preds = %12
  %16 = getelementptr inbounds nuw i8, ptr %1, i64 45
  %17 = load i8, ptr %16, align 1, !range !4, !noundef !5
  %18 = trunc nuw i8 %17 to i1
  br i1 %18, label %.thread, label %19

19:                                               ; preds = %15
  %20 = getelementptr inbounds nuw i8, ptr %1, i64 46
  %21 = load i8, ptr %20, align 2, !range !4, !noundef !5
  %22 = trunc nuw i8 %21 to i1
  br i1 %22, label %.thread, label %23

23:                                               ; preds = %19
  %24 = getelementptr inbounds nuw i8, ptr %1, i64 50
  %25 = load i8, ptr %24, align 2, !range !4, !noundef !5
  %26 = trunc nuw i8 %25 to i1
  br i1 %26, label %.thread, label %27

27:                                               ; preds = %23
  %28 = getelementptr inbounds nuw i8, ptr %1, i64 184
  %29 = load ptr, ptr %28, align 8
  %.not47 = icmp eq ptr %29, null
  br i1 %.not47, label %30, label %.thread

30:                                               ; preds = %27
  %31 = getelementptr inbounds nuw i8, ptr %1, i64 216
  %32 = load ptr, ptr %31, align 8
  %.not48 = icmp eq ptr %32, null
  br i1 %.not48, label %33, label %.thread

33:                                               ; preds = %30
  %34 = getelementptr inbounds nuw i8, ptr %1, i64 240
  %35 = load ptr, ptr %34, align 8
  %.not49 = icmp eq ptr %35, null
  br i1 %.not49, label %36, label %.thread

36:                                               ; preds = %33
  %37 = getelementptr inbounds nuw i8, ptr %1, i64 224
  %38 = load ptr, ptr %37, align 8
  %.not50 = icmp eq ptr %38, null
  br i1 %.not50, label %51, label %39

39:                                               ; preds = %36
  %40 = tail call ptr @eval_const_expressions(ptr noundef %0, ptr noundef nonnull %38) #10
  store ptr %40, ptr %37, align 8
  %41 = load i32, ptr %40, align 4
  %42 = icmp eq i32 %41, 7
  br i1 %42, label %43, label %.thread

43:                                               ; preds = %39
  %44 = getelementptr inbounds nuw i8, ptr %40, i64 32
  %45 = load i8, ptr %44, align 8, !range !4, !noundef !5
  %46 = trunc nuw i8 %45 to i1
  br i1 %46, label %.critedge, label %47

47:                                               ; preds = %43
  %48 = getelementptr inbounds nuw i8, ptr %40, i64 24
  %49 = load i64, ptr %48, align 8
  %50 = icmp slt i64 %49, 1
  br i1 %50, label %.thread, label %.critedge

.critedge:                                        ; preds = %47, %43
  store ptr null, ptr %37, align 8
  br label %51

51:                                               ; preds = %.critedge, %36
  %52 = getelementptr inbounds nuw i8, ptr %1, i64 112
  store ptr null, ptr %52, align 8
  %53 = getelementptr inbounds nuw i8, ptr %1, i64 160
  store ptr null, ptr %53, align 8
  %54 = getelementptr inbounds nuw i8, ptr %1, i64 192
  %55 = getelementptr inbounds nuw i8, ptr %1, i64 48
  store i8 0, ptr %55, align 8
  %56 = getelementptr inbounds nuw i8, ptr %1, i64 64
  tail call void @llvm.memset.p0.i64(ptr noundef nonnull align 8 dereferenceable(24) %54, i8 0, i64 24, i1 false)
  %57 = load ptr, ptr %56, align 8
  %.not51 = icmp eq ptr %57, null
  br i1 %.not51, label %.thread, label %.lr.ph

.lr.ph:                                           ; preds = %51
  %58 = getelementptr inbounds nuw i8, ptr %57, i64 4
  %59 = load i32, ptr %58, align 4
  %60 = icmp sgt i32 %59, 0
  br i1 %60, label %.critedge55.lr.ph, label %.thread

.critedge55.lr.ph:                                ; preds = %.lr.ph
  %61 = getelementptr inbounds nuw i8, ptr %57, i64 16
  %62 = load ptr, ptr %61, align 8
  %wide.trip.count = zext nneg i32 %59 to i64
  br label %.critedge55

63:                                               ; preds = %.critedge55
  %indvars.iv.next = add nuw nsw i64 %indvars.iv, 1
  %exitcond.not = icmp eq i64 %indvars.iv.next, %wide.trip.count
  br i1 %exitcond.not, label %.thread, label %.critedge55

.critedge55:                                      ; preds = %.critedge55.lr.ph, %63
  %indvars.iv = phi i64 [ 0, %.critedge55.lr.ph ], [ %indvars.iv.next, %63 ]
  %64 = getelementptr inbounds nuw %union.ListCell, ptr %62, i64 %indvars.iv
  %65 = load ptr, ptr %64, align 8
  %66 = getelementptr inbounds nuw i8, ptr %65, i64 24
  %67 = load i32, ptr %66, align 8
  %.not53 = icmp eq i32 %67, 9
  br i1 %.not53, label %.split, label %63

.split:                                           ; preds = %.critedge55
  %68 = getelementptr inbounds nuw %union.ListCell, ptr %62, i64 %indvars.iv
  %69 = tail call ptr @list_delete_cell(ptr noundef nonnull %57, ptr noundef nonnull %68) #10
  store ptr %69, ptr %56, align 8
  %70 = getelementptr inbounds nuw i8, ptr %1, i64 53
  store i8 0, ptr %70, align 1
  br label %.thread

.thread:                                          ; preds = %63, %51, %.lr.ph, %.split, %39, %47, %2, %5, %8, %12, %15, %19, %23, %27, %30, %33
  %.0 = phi i1 [ false, %33 ], [ false, %30 ], [ false, %27 ], [ false, %23 ], [ false, %19 ], [ false, %15 ], [ false, %12 ], [ false, %8 ], [ false, %5 ], [ false, %2 ], [ false, %47 ], [ false, %39 ], [ true, %.split ], [ true, %.lr.ph ], [ true, %51 ], [ true, %63 ]
  ret i1 %.0
}